(dp0
S'plotFFT'
p1
I01
sS'FFTthreshold_box'
p2
F0.01
sS'open_file'
p3
VC:/Users/Connor/Documents/Mod Phys Lab/Chaos/Simulation/4_1/Good Bifurcation/RV_22800.txt
p4
sS'plotPhasePortrait'
p5
I01
sS'params_file'
p6
VC:/Users/Connor/Documents/Mod Phys Lab/Chaos/Simulation/4_1/Good Bifurcation/Parameters.txt
p7
sS'bifurcation_file'
p8
VC:/Users/Connor/Documents/Mod Phys Lab/Chaos/Simulation/4_1/Good Bifurcation/bifurcationData.txt
p9
sS'plotWaveform'
p10
I01
s.